target datalayout = "e-m:e-p270:32:32-p271:32:32-p272:64:64-i64:64-i128:128-f80:128-n8:16:32:64-S128"
target triple = "x86_64-pc-linux-gnu"

%"struct.icu_77::CollationData" = type <{ ptr, ptr, ptr, ptr, ptr, ptr, ptr, i32, i32, i32, i32, ptr, ptr, ptr, i32, i32, ptr, ptr, i32, [4 x i8], ptr, i32, [4 x i8] }>

; Function Attrs: mustprogress nounwind uwtable
define noundef i32 @_ZNK6icu_7713CollationData14getScriptIndexEi(ptr noundef nonnull align 8 dereferenceable(140) %0, i32 noundef %1) #3 align 2 {
  %3 = alloca i32, align 4
  %4 = alloca ptr, align 8
  %5 = alloca i32, align 4
  store ptr %0, ptr %4, align 8, !tbaa !3
  store i32 %1, ptr %5, align 4, !tbaa !8
  %6 = load ptr, ptr %4, align 8
  %7 = load i32, ptr %5, align 4, !tbaa !8
  %8 = icmp slt i32 %7, 0
  br i1 %8, label %9, label %10

9:                                                ; preds = %2
  store i32 0, ptr %3, align 4
  br label %44

10:                                               ; preds = %2
  %11 = load i32, ptr %5, align 4, !tbaa !8
  %12 = getelementptr inbounds nuw %"struct.icu_77::CollationData", ptr %6, i32 0, i32 15
  %13 = load i32, ptr %12, align 4, !tbaa !39
  %14 = icmp slt i32 %11, %13
  br i1 %14, label %15, label %23

15:                                               ; preds = %10
  %16 = getelementptr inbounds nuw %"struct.icu_77::CollationData", ptr %6, i32 0, i32 16
  %17 = load ptr, ptr %16, align 8, !tbaa !40
  %18 = load i32, ptr %5, align 4, !tbaa !8
  %19 = sext i32 %18 to i64
  %20 = getelementptr inbounds i16, ptr %17, i64 %19
  %21 = load i16, ptr %20, align 2, !tbaa !35
  %22 = zext i16 %21 to i32
  store i32 %22, ptr %3, align 4
  br label %44

23:                                               ; preds = %10
  %24 = load i32, ptr %5, align 4, !tbaa !8
  %25 = icmp slt i32 %24, 4096
  br i1 %25, label %26, label %27

26:                                               ; preds = %23
  store i32 0, ptr %3, align 4
  br label %44

27:                                               ; preds = %23
  %28 = load i32, ptr %5, align 4, !tbaa !8
  %29 = sub nsw i32 %28, 4096
  store i32 %29, ptr %5, align 4, !tbaa !8
  %30 = load i32, ptr %5, align 4, !tbaa !8
  %31 = icmp slt i32 %30, 8
  br i1 %31, label %32, label %43

32:                                               ; preds = %27
  %33 = getelementptr inbounds nuw %"struct.icu_77::CollationData", ptr %6, i32 0, i32 16
  %34 = load ptr, ptr %33, align 8, !tbaa !40
  %35 = getelementptr inbounds nuw %"struct.icu_77::CollationData", ptr %6, i32 0, i32 15
  %36 = load i32, ptr %35, align 4, !tbaa !39
  %37 = load i32, ptr %5, align 4, !tbaa !8
  %38 = add nsw i32 %36, %37
  %39 = sext i32 %38 to i64
  %40 = getelementptr inbounds i16, ptr %34, i64 %39
  %41 = load i16, ptr %40, align 2, !tbaa !35
  %42 = zext i16 %41 to i32
  store i32 %42, ptr %3, align 4
  br label %44

43:                                               ; preds = %27
  store i32 0, ptr %3, align 4
  br label %44

44:                                               ; preds = %43, %32, %26, %15, %9
  %45 = load i32, ptr %3, align 4
  ret i32 %45
}

; Function Attrs: mustprogress uwtable
define noundef i32 @_ZNK6icu_7713CollationData22getLastPrimaryForGroupEi(ptr noundef nonnull align 8 dereferenceable(140) %0, i32 noundef %1) #0 align 2 {
  %3 = alloca i32, align 4
  %4 = alloca ptr, align 8
  %5 = alloca i32, align 4
  %6 = alloca i32, align 4
  %7 = alloca i32, align 4
  %8 = alloca i32, align 4
  store ptr %0, ptr %4, align 8, !tbaa !3
  store i32 %1, ptr %5, align 4, !tbaa !8
  %9 = load ptr, ptr %4, align 8
  call void @llvm.lifetime.start.p0(i64 4, ptr %6) #7
  %10 = load i32, ptr %5, align 4, !tbaa !8
  %11 = call noundef i32 @_ZNK6icu_7713CollationData14getScriptIndexEi(ptr noundef nonnull align 8 dereferenceable(140) %9, i32 noundef %10)
  store i32 %11, ptr %6, align 4, !tbaa !8
  %12 = load i32, ptr %6, align 4, !tbaa !8
  %13 = icmp eq i32 %12, 0
  br i1 %13, label %14, label %15

14:                                               ; preds = %2
  store i32 0, ptr %3, align 4
  store i32 1, ptr %7, align 4
  br label %27

15:                                               ; preds = %2
  call void @llvm.lifetime.start.p0(i64 4, ptr %8) #7
  %16 = getelementptr inbounds nuw %"struct.icu_77::CollationData", ptr %9, i32 0, i32 17
  %17 = load ptr, ptr %16, align 8, !tbaa !38
  %18 = load i32, ptr %6, align 4, !tbaa !8
  %19 = add nsw i32 %18, 1
  %20 = sext i32 %19 to i64
  %21 = getelementptr inbounds i16, ptr %17, i64 %20
  %22 = load i16, ptr %21, align 2, !tbaa !35
  %23 = zext i16 %22 to i32
  store i32 %23, ptr %8, align 4, !tbaa !8
  %24 = load i32, ptr %8, align 4, !tbaa !8
  %25 = shl i32 %24, 16
  %26 = sub i32 %25, 1
  store i32 %26, ptr %3, align 4
  store i32 1, ptr %7, align 4
  call void @llvm.lifetime.end.p0(i64 4, ptr %8) #7
  br label %27

27:                                               ; preds = %15, %14
  call void @llvm.lifetime.end.p0(i64 4, ptr %6) #7
  %28 = load i32, ptr %3, align 4
  ret i32 %28
}