; Function Attrs: mustprogress nofree norecurse nosync nounwind willreturn memory(read, inaccessiblemem: none) uwtable
define noundef range(i32 -1, -65536) i32 @_ZNK6icu_7713CollationData22getLastPrimaryForGroupEi(ptr noundef nonnull readonly align 8 captures(none) dereferenceable(140) %0, i32 noundef %1) local_unnamed_addr #0 align 2 {
  %3 = icmp slt i32 %1, 0
  br i1 %3, label %_ZNK6icu_7713CollationData14getScriptIndexEi.exit.thread, label %4

4:                                                ; preds = %2
  %5 = getelementptr inbounds nuw i8, ptr %0, i64 100
  %6 = load i32, ptr %5, align 4, !tbaa !36
  %7 = icmp slt i32 %1, %6
  br i1 %7, label %8, label %13

8:                                                ; preds = %4
  %9 = getelementptr inbounds nuw i8, ptr %0, i64 104
  %10 = load ptr, ptr %9, align 8, !tbaa !37
  %11 = zext nneg i32 %1 to i64
  %12 = getelementptr inbounds nuw i16, ptr %10, i64 %11
  br label %_ZNK6icu_7713CollationData14getScriptIndexEi.exit

13:                                               ; preds = %4
  %14 = and i32 %1, 2147483640
  %or.cond.i = icmp eq i32 %14, 4096
  br i1 %or.cond.i, label %15, label %_ZNK6icu_7713CollationData14getScriptIndexEi.exit.thread

15:                                               ; preds = %13
  %16 = add nsw i32 %1, -4096
  %17 = getelementptr inbounds nuw i8, ptr %0, i64 104
  %18 = load ptr, ptr %17, align 8, !tbaa !37
  %19 = add nsw i32 %16, %6
  %20 = sext i32 %19 to i64
  %21 = getelementptr inbounds i16, ptr %18, i64 %20
  br label %_ZNK6icu_7713CollationData14getScriptIndexEi.exit

_ZNK6icu_7713CollationData14getScriptIndexEi.exit: ; preds = %8, %15
  %.0.shrunk.i.in = phi ptr [ %12, %8 ], [ %21, %15 ]
  %.0.shrunk.i = load i16, ptr %.0.shrunk.i.in, align 2, !tbaa !29
  %22 = icmp eq i16 %.0.shrunk.i, 0
  br i1 %22, label %_ZNK6icu_7713CollationData14getScriptIndexEi.exit.thread, label %23

23:                                               ; preds = %_ZNK6icu_7713CollationData14getScriptIndexEi.exit
  %24 = getelementptr inbounds nuw i8, ptr %0, i64 112
  %25 = load ptr, ptr %24, align 8, !tbaa !38
  %26 = zext i16 %.0.shrunk.i to i64
  %27 = getelementptr inbounds nuw i16, ptr %25, i64 %26
  %28 = getelementptr inbounds nuw i8, ptr %27, i64 2
  %29 = load i16, ptr %28, align 2, !tbaa !29
  %30 = zext i16 %29 to i32
  %31 = shl nuw i32 %30, 16
  %32 = add i32 %31, -1
  br label %_ZNK6icu_7713CollationData14getScriptIndexEi.exit.thread

_ZNK6icu_7713CollationData14getScriptIndexEi.exit.thread: ; preds = %13, %2, %_ZNK6icu_7713CollationData14getScriptIndexEi.exit, %23
  %.0 = phi i32 [ %32, %23 ], [ 0, %_ZNK6icu_7713CollationData14getScriptIndexEi.exit ], [ 0, %2 ], [ 0, %13 ]
  ret i32 %.0
}